; Function Attrs: nounwind uwtable
define noalias nonnull ptr @l_Lean_Elab_Term_CollectPatternVars_collect_processCtorApp___lambda__1(ptr noundef %0, ptr noundef %1, ptr noundef %2, ptr readnone captures(none) %3, ptr readnone captures(none) %4, ptr readnone captures(none) %5, ptr readnone captures(none) %6, ptr readnone captures(none) %7, ptr readnone captures(none) %8, ptr readnone captures(none) %9, ptr readnone captures(none) %10, ptr noundef %11) local_unnamed_addr #0 {
  %13 = tail call ptr @l_Array_append___rarg(ptr noundef %0, ptr noundef %2) #6
  %14 = tail call ptr @l_Lean_Syntax_mkApp(ptr noundef %1, ptr noundef %13) #6
  tail call void @lean_inc_heartbeat() #6
  %15 = tail call noalias ptr @mi_malloc_small(i64 noundef 24) #6
  %16 = icmp eq ptr %15, null
  br i1 %16, label %17, label %lean_alloc_ctor.exit

17:                                               ; preds = %12
  tail call void @lean_internal_panic_out_of_memory() #7
  unreachable

lean_alloc_ctor.exit:                             ; preds = %12
  %18 = getelementptr inbounds nuw i8, ptr %15, i64 4
  store i32 1, ptr %15, align 4, !tbaa !8
  store i32 131096, ptr %18, align 4
  %19 = getelementptr inbounds nuw i8, ptr %15, i64 8
  store ptr %14, ptr %19, align 8, !tbaa !11
  %20 = getelementptr inbounds nuw i8, ptr %15, i64 16
  store ptr %11, ptr %20, align 8, !tbaa !11
  ret ptr %15
}